target datalayout = "e-m:e-p270:32:32-p271:32:32-p272:64:64-i64:64-i128:128-f80:128-n8:16:32:64-S128"
target triple = "x86_64-pc-linux-gnu"

%"class.std::__cxx11::basic_string" = type { %"struct.std::__cxx11::basic_string<char>::_Alloc_hider", i64, %union.anon }
%"struct.std::__cxx11::basic_string<char>::_Alloc_hider" = type { ptr }
%union.anon = type { i64, [8 x i8] }
%"struct.faiss::Index.base" = type <{ ptr, i32, [4 x i8], i64, i8, i8, [2 x i8], i32, float }>
%"class.std::vector.3" = type { %"struct.std::_Vector_base.4" }
%"struct.std::_Vector_base.4" = type { %"struct.std::_Vector_base<long, std::allocator<long>>::_Vector_impl" }
%"struct.std::_Vector_base<long, std::allocator<long>>::_Vector_impl" = type { %"struct.std::_Vector_base<long, std::allocator<long>>::_Vector_impl_data" }
%"struct.std::_Vector_base<long, std::allocator<long>>::_Vector_impl_data" = type { ptr, ptr, ptr }
%"struct.faiss::Level1Quantizer" = type { ptr, i64, i8, i8, %"struct.faiss::ClusteringParameters", ptr }
%"struct.faiss::ClusteringParameters" = type { i32, i32, i8, i8, i8, i8, i8, i32, i32, i32, i64 }
%"struct.faiss::IndexIVFInterface" = type { ptr, %"struct.faiss::Level1Quantizer", i64, i64 }
%"struct.faiss::IndexIVF" = type <{ %"struct.faiss::Index.base", [4 x i8], %"struct.faiss::IndexIVFInterface", ptr, i8, [7 x i8], i64, i32, i32, %"struct.faiss::DirectMap", i8, [7 x i8] }>
%"struct.faiss::DirectMap" = type { i32, %"class.std::vector.3", %"class.std::unordered_map" }
%"class.std::unordered_map" = type { %"class.std::_Hashtable" }
%"class.std::_Hashtable" = type { ptr, i64, %"struct.std::__detail::_Hash_node_base", i64, %"struct.std::__detail::_Prime_rehash_policy", ptr }
%"struct.std::__detail::_Hash_node_base" = type { ptr }
%"struct.std::__detail::_Prime_rehash_policy" = type { float, i64 }
%"struct.faiss::InvertedLists" = type <{ ptr, i64, i64, i8, [7 x i8] }>
%"struct.faiss::InvertedLists::ScopedIds" = type { ptr, ptr, i64 }
%"struct.faiss::InvertedLists::ScopedCodes" = type { ptr, ptr, i64 }

@.str.2 = private unnamed_addr constant [106 x i8] c"generated/home/dtcxzyw/WorkSpace/Projects/compilers/llvm-opt-benchmark/bench/faiss/faiss/faiss/IVFlib.cpp\00", align 1
@_ZTIN5faiss14FaissExceptionE = external constant ptr
@.str.3 = private unnamed_addr constant [19 x i8] c"Error: '%s' failed\00", align 1
@.str.21 = private unnamed_addr constant [40 x i8] c"0 <= i0 && i0 <= i1 && i1 <= ivf->nlist\00", align 1
@__PRETTY_FUNCTION__._ZN5faiss6ivflib17get_invlist_rangeEPKNS_5IndexEll = private unnamed_addr constant [80 x i8] c"ArrayInvertedLists *faiss::ivflib::get_invlist_range(const Index *, long, long)\00", align 1

; Function Attrs: mustprogress nounwind uwtable
define linkonce_odr void @_ZN5faiss13InvertedLists9ScopedIdsD2Ev(ptr noundef nonnull align 8 dereferenceable(24) %0) unnamed_addr #6 comdat align 2 personality ptr @__gxx_personality_v0 {
  %2 = alloca ptr, align 8
  store ptr %0, ptr %2, align 8
  %3 = load ptr, ptr %2, align 8
  %4 = getelementptr inbounds %"struct.faiss::InvertedLists::ScopedIds", ptr %3, i32 0, i32 0
  %5 = load ptr, ptr %4, align 8
  %6 = getelementptr inbounds %"struct.faiss::InvertedLists::ScopedIds", ptr %3, i32 0, i32 2
  %7 = load i64, ptr %6, align 8
  %8 = getelementptr inbounds %"struct.faiss::InvertedLists::ScopedIds", ptr %3, i32 0, i32 1
  %9 = load ptr, ptr %8, align 8
  %10 = load ptr, ptr %5, align 8
  %11 = getelementptr inbounds ptr, ptr %10, i64 7
  %12 = load ptr, ptr %11, align 8
  invoke void %12(ptr noundef nonnull align 8 dereferenceable(25) %5, i64 noundef %7, ptr noundef %9)
          to label %13 unwind label %14

13:                                               ; preds = %1
  ret void

14:                                               ; preds = %1
  %15 = landingpad { ptr, i32 }
          catch ptr null
  %16 = extractvalue { ptr, i32 } %15, 0
  call void @__clang_call_terminate(ptr %16) #17
  unreachable
}

; Function Attrs: mustprogress nounwind uwtable
define linkonce_odr void @_ZN5faiss13InvertedLists11ScopedCodesD2Ev(ptr noundef nonnull align 8 dereferenceable(24) %0) unnamed_addr #6 comdat align 2 personality ptr @__gxx_personality_v0 {
  %2 = alloca ptr, align 8
  store ptr %0, ptr %2, align 8
  %3 = load ptr, ptr %2, align 8
  %4 = getelementptr inbounds %"struct.faiss::InvertedLists::ScopedCodes", ptr %3, i32 0, i32 0
  %5 = load ptr, ptr %4, align 8
  %6 = getelementptr inbounds %"struct.faiss::InvertedLists::ScopedCodes", ptr %3, i32 0, i32 2
  %7 = load i64, ptr %6, align 8
  %8 = getelementptr inbounds %"struct.faiss::InvertedLists::ScopedCodes", ptr %3, i32 0, i32 1
  %9 = load ptr, ptr %8, align 8
  %10 = load ptr, ptr %5, align 8
  %11 = getelementptr inbounds ptr, ptr %10, i64 6
  %12 = load ptr, ptr %11, align 8
  invoke void %12(ptr noundef nonnull align 8 dereferenceable(25) %5, i64 noundef %7, ptr noundef %9)
          to label %13 unwind label %14

13:                                               ; preds = %1
  ret void

14:                                               ; preds = %1
  %15 = landingpad { ptr, i32 }
          catch ptr null
  %16 = extractvalue { ptr, i32 } %15, 0
  call void @__clang_call_terminate(ptr %16) #17
  unreachable
}

; Function Attrs: mustprogress nounwind uwtable
define linkonce_odr noundef ptr @_ZN5faiss13InvertedLists11ScopedCodes3getEv(ptr noundef nonnull align 8 dereferenceable(24) %0) #6 comdat align 2 {
  %2 = alloca ptr, align 8
  store ptr %0, ptr %2, align 8
  %3 = load ptr, ptr %2, align 8
  %4 = getelementptr inbounds %"struct.faiss::InvertedLists::ScopedCodes", ptr %3, i32 0, i32 1
  %5 = load ptr, ptr %4, align 8
  ret ptr %5
}

; Function Attrs: mustprogress uwtable
define linkonce_odr void @_ZN5faiss13InvertedLists11ScopedCodesC2EPKS0_m(ptr noundef nonnull align 8 dereferenceable(24) %0, ptr noundef %1, i64 noundef %2) unnamed_addr #4 comdat align 2 {
  %4 = alloca ptr, align 8
  %5 = alloca ptr, align 8
  %6 = alloca i64, align 8
  store ptr %0, ptr %4, align 8
  store ptr %1, ptr %5, align 8
  store i64 %2, ptr %6, align 8
  %7 = load ptr, ptr %4, align 8
  %8 = getelementptr inbounds %"struct.faiss::InvertedLists::ScopedCodes", ptr %7, i32 0, i32 0
  %9 = load ptr, ptr %5, align 8
  store ptr %9, ptr %8, align 8
  %10 = getelementptr inbounds %"struct.faiss::InvertedLists::ScopedCodes", ptr %7, i32 0, i32 1
  %11 = load ptr, ptr %5, align 8
  %12 = load i64, ptr %6, align 8
  %13 = load ptr, ptr %11, align 8
  %14 = getelementptr inbounds ptr, ptr %13, i64 4
  %15 = load ptr, ptr %14, align 8
  %16 = call noundef ptr %15(ptr noundef nonnull align 8 dereferenceable(25) %11, i64 noundef %12)
  store ptr %16, ptr %10, align 8
  %17 = getelementptr inbounds %"struct.faiss::InvertedLists::ScopedCodes", ptr %7, i32 0, i32 2
  %18 = load i64, ptr %6, align 8
  store i64 %18, ptr %17, align 8
  ret void
}

; Function Attrs: mustprogress nounwind uwtable
define linkonce_odr noundef ptr @_ZN5faiss13InvertedLists9ScopedIds3getEv(ptr noundef nonnull align 8 dereferenceable(24) %0) #6 comdat align 2 {
  %2 = alloca ptr, align 8
  store ptr %0, ptr %2, align 8
  %3 = load ptr, ptr %2, align 8
  %4 = getelementptr inbounds %"struct.faiss::InvertedLists::ScopedIds", ptr %3, i32 0, i32 1
  %5 = load ptr, ptr %4, align 8
  ret ptr %5
}

; Function Attrs: mustprogress uwtable
define linkonce_odr void @_ZN5faiss13InvertedLists9ScopedIdsC2EPKS0_m(ptr noundef nonnull align 8 dereferenceable(24) %0, ptr noundef %1, i64 noundef %2) unnamed_addr #4 comdat align 2 {
  %4 = alloca ptr, align 8
  %5 = alloca ptr, align 8
  %6 = alloca i64, align 8
  store ptr %0, ptr %4, align 8
  store ptr %1, ptr %5, align 8
  store i64 %2, ptr %6, align 8
  %7 = load ptr, ptr %4, align 8
  %8 = getelementptr inbounds %"struct.faiss::InvertedLists::ScopedIds", ptr %7, i32 0, i32 0
  %9 = load ptr, ptr %5, align 8
  store ptr %9, ptr %8, align 8
  %10 = getelementptr inbounds %"struct.faiss::InvertedLists::ScopedIds", ptr %7, i32 0, i32 1
  %11 = load ptr, ptr %5, align 8
  %12 = load i64, ptr %6, align 8
  %13 = load ptr, ptr %11, align 8
  %14 = getelementptr inbounds ptr, ptr %13, i64 5
  %15 = load ptr, ptr %14, align 8
  %16 = call noundef ptr %15(ptr noundef nonnull align 8 dereferenceable(25) %11, i64 noundef %12)
  store ptr %16, ptr %10, align 8
  %17 = getelementptr inbounds %"struct.faiss::InvertedLists::ScopedIds", ptr %7, i32 0, i32 2
  %18 = load i64, ptr %6, align 8
  store i64 %18, ptr %17, align 8
  ret void
}

; Function Attrs: mustprogress uwtable
define noundef ptr @_ZN5faiss6ivflib17get_invlist_rangeEPKNS_5IndexEll(ptr noundef %0, i64 noundef %1, i64 noundef %2) #4 personality ptr @__gxx_personality_v0 {
  %4 = alloca ptr, align 8
  %5 = alloca i64, align 8
  %6 = alloca i64, align 8
  %7 = alloca ptr, align 8
  %8 = alloca %"class.std::__cxx11::basic_string", align 8
  %9 = alloca i32, align 4
  %10 = alloca ptr, align 8
  %11 = alloca i32, align 4
  %12 = alloca ptr, align 8
  %13 = alloca ptr, align 8
  %14 = alloca i64, align 8
  %15 = alloca %"struct.faiss::InvertedLists::ScopedIds", align 8
  %16 = alloca %"struct.faiss::InvertedLists::ScopedCodes", align 8
  store ptr %0, ptr %4, align 8
  store i64 %1, ptr %5, align 8
  store i64 %2, ptr %6, align 8
  %17 = load ptr, ptr %4, align 8
  %18 = call noundef ptr @_ZN5faiss6ivflib17extract_index_ivfEPKNS_5IndexE(ptr noundef %17)
  store ptr %18, ptr %7, align 8
  br label %19

19:                                               ; preds = %3
  %20 = load i64, ptr %5, align 8
  %21 = icmp sle i64 0, %20
  br i1 %21, label %22, label %33

22:                                               ; preds = %19
  %23 = load i64, ptr %5, align 8
  %24 = load i64, ptr %6, align 8
  %25 = icmp sle i64 %23, %24
  br i1 %25, label %26, label %33

26:                                               ; preds = %22
  %27 = load i64, ptr %6, align 8
  %28 = load ptr, ptr %7, align 8
  %29 = getelementptr inbounds i8, ptr %28, i64 48
  %30 = getelementptr inbounds %"struct.faiss::Level1Quantizer", ptr %29, i32 0, i32 1
  %31 = load i64, ptr %30, align 8
  %32 = icmp ule i64 %27, %31
  br i1 %32, label %56, label %33

33:                                               ; preds = %26, %22, %19
  br label %34

34:                                               ; preds = %33
  call void @_ZNSt7__cxx1112basic_stringIcSt11char_traitsIcESaIcEEC1Ev(ptr noundef nonnull align 8 dereferenceable(32) %8) #3
  %35 = call i32 (ptr, i64, ptr, ...) @snprintf(ptr noundef null, i64 noundef 0, ptr noundef @.str.3, ptr noundef @.str.21) #3
  store i32 %35, ptr %9, align 4
  %36 = load i32, ptr %9, align 4
  %37 = add nsw i32 %36, 1
  %38 = sext i32 %37 to i64
  invoke void @_ZNSt7__cxx1112basic_stringIcSt11char_traitsIcESaIcEE6resizeEm(ptr noundef nonnull align 8 dereferenceable(32) %8, i64 noundef %38)
          to label %39 unwind label %46

39:                                               ; preds = %34
  %40 = invoke noundef nonnull align 1 dereferenceable(1) ptr @_ZNSt7__cxx1112basic_stringIcSt11char_traitsIcESaIcEEixEm(ptr noundef nonnull align 8 dereferenceable(32) %8, i64 noundef 0)
          to label %41 unwind label %46

41:                                               ; preds = %39
  %42 = call noundef i64 @_ZNKSt7__cxx1112basic_stringIcSt11char_traitsIcESaIcEE4sizeEv(ptr noundef nonnull align 8 dereferenceable(32) %8) #3
  %43 = call i32 (ptr, i64, ptr, ...) @snprintf(ptr noundef %40, i64 noundef %42, ptr noundef @.str.3, ptr noundef @.str.21) #3
  %44 = call ptr @__cxa_allocate_exception(i64 40) #3
  invoke void @_ZN5faiss14FaissExceptionC1ERKNSt7__cxx1112basic_stringIcSt11char_traitsIcESaIcEEEPKcSA_i(ptr noundef nonnull align 8 dereferenceable(40) %44, ptr noundef nonnull align 8 dereferenceable(32) %8, ptr noundef @__PRETTY_FUNCTION__._ZN5faiss6ivflib17get_invlist_rangeEPKNS_5IndexEll, ptr noundef @.str.2, i32 noundef 269)
          to label %45 unwind label %50

45:                                               ; preds = %41
  invoke void @__cxa_throw(ptr %44, ptr @_ZTIN5faiss14FaissExceptionE, ptr @_ZN5faiss14FaissExceptionD2Ev) #16
          to label %122 unwind label %46

46:                                               ; preds = %45, %39, %34
  %47 = landingpad { ptr, i32 }
          cleanup
  %48 = extractvalue { ptr, i32 } %47, 0
  store ptr %48, ptr %10, align 8
  %49 = extractvalue { ptr, i32 } %47, 1
  store i32 %49, ptr %11, align 4
  br label %54

50:                                               ; preds = %41
  %51 = landingpad { ptr, i32 }
          cleanup
  %52 = extractvalue { ptr, i32 } %51, 0
  store ptr %52, ptr %10, align 8
  %53 = extractvalue { ptr, i32 } %51, 1
  store i32 %53, ptr %11, align 4
  call void @__cxa_free_exception(ptr %44) #3
  br label %54

54:                                               ; preds = %50, %46
  call void @_ZNSt7__cxx1112basic_stringIcSt11char_traitsIcESaIcEED1Ev(ptr noundef nonnull align 8 dereferenceable(32) %8) #3
  br label %117

55:                                               ; No predecessors!
  br label %56

56:                                               ; preds = %55, %26
  br label %57

57:                                               ; preds = %56
  %58 = load ptr, ptr %7, align 8
  %59 = getelementptr inbounds %"struct.faiss::IndexIVF", ptr %58, i32 0, i32 3
  %60 = load ptr, ptr %59, align 8
  store ptr %60, ptr %12, align 8
  %61 = call noalias noundef nonnull ptr @_Znwm(i64 noundef 80) #19
  %62 = load i64, ptr %6, align 8
  %63 = load i64, ptr %5, align 8
  %64 = sub nsw i64 %62, %63
  %65 = load ptr, ptr %12, align 8
  %66 = getelementptr inbounds %"struct.faiss::InvertedLists", ptr %65, i32 0, i32 2
  %67 = load i64, ptr %66, align 8
  invoke void @_ZN5faiss18ArrayInvertedListsC1Emm(ptr noundef nonnull align 8 dereferenceable(80) %61, i64 noundef %64, i64 noundef %67)
          to label %68 unwind label %102

68:                                               ; preds = %57
  store ptr %61, ptr %13, align 8
  %69 = load i64, ptr %5, align 8
  store i64 %69, ptr %14, align 8
  br label %70

70:                                               ; preds = %99, %68
  %71 = load i64, ptr %14, align 8
  %72 = load i64, ptr %6, align 8
  %73 = icmp slt i64 %71, %72
  br i1 %73, label %74, label %115

74:                                               ; preds = %70
  %75 = load ptr, ptr %13, align 8
  %76 = load i64, ptr %14, align 8
  %77 = load i64, ptr %5, align 8
  %78 = sub nsw i64 %76, %77
  %79 = load ptr, ptr %12, align 8
  %80 = load i64, ptr %14, align 8
  %81 = load ptr, ptr %79, align 8
  %82 = getelementptr inbounds ptr, ptr %81, i64 2
  %83 = load ptr, ptr %82, align 8
  %84 = call noundef i64 %83(ptr noundef nonnull align 8 dereferenceable(25) %79, i64 noundef %80)
  %85 = load ptr, ptr %12, align 8
  %86 = load i64, ptr %14, align 8
  call void @_ZN5faiss13InvertedLists9ScopedIdsC2EPKS0_m(ptr noundef nonnull align 8 dereferenceable(24) %15, ptr noundef %85, i64 noundef %86)
  %87 = invoke noundef ptr @_ZN5faiss13InvertedLists9ScopedIds3getEv(ptr noundef nonnull align 8 dereferenceable(24) %15)
          to label %88 unwind label %106

88:                                               ; preds = %74
  %89 = load ptr, ptr %12, align 8
  %90 = load i64, ptr %14, align 8
  invoke void @_ZN5faiss13InvertedLists11ScopedCodesC2EPKS0_m(ptr noundef nonnull align 8 dereferenceable(24) %16, ptr noundef %89, i64 noundef %90)
          to label %91 unwind label %106

91:                                               ; preds = %88
  %92 = invoke noundef ptr @_ZN5faiss13InvertedLists11ScopedCodes3getEv(ptr noundef nonnull align 8 dereferenceable(24) %16)
          to label %93 unwind label %110

93:                                               ; preds = %91
  %94 = load ptr, ptr %75, align 8
  %95 = getelementptr inbounds ptr, ptr %94, i64 12
  %96 = load ptr, ptr %95, align 8
  %97 = invoke noundef i64 %96(ptr noundef nonnull align 8 dereferenceable(80) %75, i64 noundef %78, i64 noundef %84, ptr noundef %87, ptr noundef %92)
          to label %98 unwind label %110

98:                                               ; preds = %93
  call void @_ZN5faiss13InvertedLists11ScopedCodesD2Ev(ptr noundef nonnull align 8 dereferenceable(24) %16) #3
  call void @_ZN5faiss13InvertedLists9ScopedIdsD2Ev(ptr noundef nonnull align 8 dereferenceable(24) %15) #3
  br label %99

99:                                               ; preds = %98
  %100 = load i64, ptr %14, align 8
  %101 = add nsw i64 %100, 1
  store i64 %101, ptr %14, align 8
  br label %70, !llvm.loop !19

102:                                              ; preds = %57
  %103 = landingpad { ptr, i32 }
          cleanup
  %104 = extractvalue { ptr, i32 } %103, 0
  store ptr %104, ptr %10, align 8
  %105 = extractvalue { ptr, i32 } %103, 1
  store i32 %105, ptr %11, align 4
  call void @_ZdlPv(ptr noundef %61) #18
  br label %117

106:                                              ; preds = %88, %74
  %107 = landingpad { ptr, i32 }
          cleanup
  %108 = extractvalue { ptr, i32 } %107, 0
  store ptr %108, ptr %10, align 8
  %109 = extractvalue { ptr, i32 } %107, 1
  store i32 %109, ptr %11, align 4
  br label %114

110:                                              ; preds = %93, %91
  %111 = landingpad { ptr, i32 }
          cleanup
  %112 = extractvalue { ptr, i32 } %111, 0
  store ptr %112, ptr %10, align 8
  %113 = extractvalue { ptr, i32 } %111, 1
  store i32 %113, ptr %11, align 4
  call void @_ZN5faiss13InvertedLists11ScopedCodesD2Ev(ptr noundef nonnull align 8 dereferenceable(24) %16) #3
  br label %114

114:                                              ; preds = %110, %106
  call void @_ZN5faiss13InvertedLists9ScopedIdsD2Ev(ptr noundef nonnull align 8 dereferenceable(24) %15) #3
  br label %117

115:                                              ; preds = %70
  %116 = load ptr, ptr %13, align 8
  ret ptr %116

117:                                              ; preds = %114, %102, %54
  %118 = load ptr, ptr %10, align 8
  %119 = load i32, ptr %11, align 4
  %120 = insertvalue { ptr, i32 } poison, ptr %118, 0
  %121 = insertvalue { ptr, i32 } %120, i32 %119, 1
  resume { ptr, i32 } %121

122:                                              ; preds = %45
  unreachable
}