; Function Attrs: mustprogress uwtable
define noundef ptr @_ZN5faiss6ivflib17get_invlist_rangeEPKNS_5IndexEll(ptr noundef %0, i64 noundef %1, i64 noundef %2) local_unnamed_addr #3 personality ptr @__gxx_personality_v0 {
  %4 = alloca %"class.std::__cxx11::basic_string", align 8
  %5 = tail call noundef ptr @_ZN5faiss6ivflib17extract_index_ivfEPKNS_5IndexE(ptr noundef %0)
  %6 = icmp slt i64 %1, 0
  %.not = icmp sgt i64 %1, %2
  %or.cond = or i1 %6, %.not
  br i1 %or.cond, label %10, label %7

7:                                                ; preds = %3
  %8 = getelementptr inbounds i8, ptr %5, i64 56
  %9 = load i64, ptr %8, align 8
  %.not32 = icmp ult i64 %9, %2
  br i1 %.not32, label %10, label %26

10:                                               ; preds = %3, %7
  call void @_ZNSt7__cxx1112basic_stringIcSt11char_traitsIcESaIcEEC1Ev(ptr noundef nonnull align 8 dereferenceable(32) %4) #16
  %11 = call i32 (ptr, i64, ptr, ...) @snprintf(ptr noundef null, i64 noundef 0, ptr noundef nonnull @.str.3, ptr noundef nonnull @.str.21) #16
  %12 = add nsw i32 %11, 1
  %13 = sext i32 %12 to i64
  invoke void @_ZNSt7__cxx1112basic_stringIcSt11char_traitsIcESaIcEE6resizeEm(ptr noundef nonnull align 8 dereferenceable(32) %4, i64 noundef %13)
          to label %14 unwind label %21

14:                                               ; preds = %10
  %15 = invoke noundef nonnull align 1 dereferenceable(1) ptr @_ZNSt7__cxx1112basic_stringIcSt11char_traitsIcESaIcEEixEm(ptr noundef nonnull align 8 dereferenceable(32) %4, i64 noundef 0)
          to label %16 unwind label %21

16:                                               ; preds = %14
  %17 = call noundef i64 @_ZNKSt7__cxx1112basic_stringIcSt11char_traitsIcESaIcEE4sizeEv(ptr noundef nonnull align 8 dereferenceable(32) %4) #16
  %18 = call i32 (ptr, i64, ptr, ...) @snprintf(ptr noundef nonnull %15, i64 noundef %17, ptr noundef nonnull @.str.3, ptr noundef nonnull @.str.21) #16
  %19 = call ptr @__cxa_allocate_exception(i64 40) #16
  invoke void @_ZN5faiss14FaissExceptionC1ERKNSt7__cxx1112basic_stringIcSt11char_traitsIcESaIcEEEPKcSA_i(ptr noundef nonnull align 8 dereferenceable(40) %19, ptr noundef nonnull align 8 dereferenceable(32) %4, ptr noundef nonnull @__PRETTY_FUNCTION__._ZN5faiss6ivflib17get_invlist_rangeEPKNS_5IndexEll, ptr noundef nonnull @.str.2, i32 noundef 269)
          to label %20 unwind label %23

20:                                               ; preds = %16
  invoke void @__cxa_throw(ptr nonnull %19, ptr nonnull @_ZTIN5faiss14FaissExceptionE, ptr nonnull @_ZN5faiss14FaissExceptionD2Ev) #22
          to label %83 unwind label %21

21:                                               ; preds = %20, %14, %10
  %22 = landingpad { ptr, i32 }
          cleanup
  br label %25

23:                                               ; preds = %16
  %24 = landingpad { ptr, i32 }
          cleanup
  call void @__cxa_free_exception(ptr %19) #16
  br label %25

25:                                               ; preds = %23, %21
  %.pn = phi { ptr, i32 } [ %22, %21 ], [ %24, %23 ]
  call void @_ZNSt7__cxx1112basic_stringIcSt11char_traitsIcESaIcEED1Ev(ptr noundef nonnull align 8 dereferenceable(32) %4) #16
  br label %_ZN5faiss13InvertedLists9ScopedIdsD2Ev.exit38

26:                                               ; preds = %7
  %27 = getelementptr inbounds i8, ptr %5, i64 136
  %28 = load ptr, ptr %27, align 8
  %29 = tail call noalias noundef nonnull dereferenceable(80) ptr @_Znwm(i64 noundef 80) #25
  %30 = sub nsw i64 %2, %1
  %31 = getelementptr inbounds i8, ptr %28, i64 16
  %32 = load i64, ptr %31, align 8
  invoke void @_ZN5faiss18ArrayInvertedListsC1Emm(ptr noundef nonnull align 8 dereferenceable(80) %29, i64 noundef %30, i64 noundef %32)
          to label %.preheader unwind label %65

.preheader:                                       ; preds = %26
  %33 = icmp slt i64 %1, %2
  br i1 %33, label %.lr.ph, label %._crit_edge

.lr.ph:                                           ; preds = %.preheader, %_ZN5faiss13InvertedLists9ScopedIdsD2Ev.exit
  %.061 = phi i64 [ %64, %_ZN5faiss13InvertedLists9ScopedIdsD2Ev.exit ], [ %1, %.preheader ]
  %34 = load ptr, ptr %28, align 8
  %35 = getelementptr inbounds i8, ptr %34, i64 16
  %36 = load ptr, ptr %35, align 8
  %37 = tail call noundef i64 %36(ptr noundef nonnull align 8 dereferenceable(25) %28, i64 noundef %.061)
  %38 = load ptr, ptr %28, align 8
  %39 = getelementptr inbounds i8, ptr %38, i64 40
  %40 = load ptr, ptr %39, align 8
  %41 = tail call noundef ptr %40(ptr noundef nonnull align 8 dereferenceable(25) %28, i64 noundef %.061)
  %42 = load ptr, ptr %28, align 8
  %43 = getelementptr inbounds i8, ptr %42, i64 32
  %44 = load ptr, ptr %43, align 8
  %45 = invoke noundef ptr %44(ptr noundef nonnull align 8 dereferenceable(25) %28, i64 noundef %.061)
          to label %_ZN5faiss13InvertedLists11ScopedCodesC2EPKS0_m.exit unwind label %67

_ZN5faiss13InvertedLists11ScopedCodesC2EPKS0_m.exit: ; preds = %.lr.ph
  %46 = sub nuw nsw i64 %.061, %1
  %47 = load ptr, ptr %29, align 8
  %48 = getelementptr inbounds i8, ptr %47, i64 96
  %49 = load ptr, ptr %48, align 8
  %50 = invoke noundef i64 %49(ptr noundef nonnull align 8 dereferenceable(80) %29, i64 noundef %46, i64 noundef %37, ptr noundef %41, ptr noundef %45)
          to label %51 unwind label %69

51:                                               ; preds = %_ZN5faiss13InvertedLists11ScopedCodesC2EPKS0_m.exit
  %52 = load ptr, ptr %28, align 8
  %53 = getelementptr inbounds i8, ptr %52, i64 48
  %54 = load ptr, ptr %53, align 8
  invoke void %54(ptr noundef nonnull align 8 dereferenceable(25) %28, i64 noundef %.061, ptr noundef %45)
          to label %_ZN5faiss13InvertedLists11ScopedCodesD2Ev.exit unwind label %55

55:                                               ; preds = %51
  %56 = landingpad { ptr, i32 }
          catch ptr null
  %57 = extractvalue { ptr, i32 } %56, 0
  tail call void @__clang_call_terminate(ptr %57) #24
  unreachable

_ZN5faiss13InvertedLists11ScopedCodesD2Ev.exit:   ; preds = %51
  %58 = load ptr, ptr %28, align 8
  %59 = getelementptr inbounds i8, ptr %58, i64 56
  %60 = load ptr, ptr %59, align 8
  invoke void %60(ptr noundef nonnull align 8 dereferenceable(25) %28, i64 noundef %.061, ptr noundef %41)
          to label %_ZN5faiss13InvertedLists9ScopedIdsD2Ev.exit unwind label %61

61:                                               ; preds = %_ZN5faiss13InvertedLists11ScopedCodesD2Ev.exit
  %62 = landingpad { ptr, i32 }
          catch ptr null
  %63 = extractvalue { ptr, i32 } %62, 0
  tail call void @__clang_call_terminate(ptr %63) #24
  unreachable

_ZN5faiss13InvertedLists9ScopedIdsD2Ev.exit:      ; preds = %_ZN5faiss13InvertedLists11ScopedCodesD2Ev.exit
  %64 = add i64 %.061, 1
  %exitcond.not = icmp eq i64 %64, %2
  br i1 %exitcond.not, label %._crit_edge, label %.lr.ph, !llvm.loop !20

65:                                               ; preds = %26
  %66 = landingpad { ptr, i32 }
          cleanup
  tail call void @_ZdlPv(ptr noundef nonnull %29) #23
  br label %_ZN5faiss13InvertedLists9ScopedIdsD2Ev.exit38

67:                                               ; preds = %.lr.ph
  %68 = landingpad { ptr, i32 }
          cleanup
  br label %_ZN5faiss13InvertedLists11ScopedCodesD2Ev.exit37

69:                                               ; preds = %_ZN5faiss13InvertedLists11ScopedCodesC2EPKS0_m.exit
  %70 = landingpad { ptr, i32 }
          cleanup
  %71 = load ptr, ptr %28, align 8
  %72 = getelementptr inbounds i8, ptr %71, i64 48
  %73 = load ptr, ptr %72, align 8
  invoke void %73(ptr noundef nonnull align 8 dereferenceable(25) %28, i64 noundef %.061, ptr noundef %45)
          to label %_ZN5faiss13InvertedLists11ScopedCodesD2Ev.exit37 unwind label %74

74:                                               ; preds = %69
  %75 = landingpad { ptr, i32 }
          catch ptr null
  %76 = extractvalue { ptr, i32 } %75, 0
  tail call void @__clang_call_terminate(ptr %76) #24
  unreachable

_ZN5faiss13InvertedLists11ScopedCodesD2Ev.exit37: ; preds = %69, %67
  %.pn34 = phi { ptr, i32 } [ %68, %67 ], [ %70, %69 ]
  %77 = load ptr, ptr %28, align 8
  %78 = getelementptr inbounds i8, ptr %77, i64 56
  %79 = load ptr, ptr %78, align 8
  invoke void %79(ptr noundef nonnull align 8 dereferenceable(25) %28, i64 noundef %.061, ptr noundef %41)
          to label %_ZN5faiss13InvertedLists9ScopedIdsD2Ev.exit38 unwind label %80

80:                                               ; preds = %_ZN5faiss13InvertedLists11ScopedCodesD2Ev.exit37
  %81 = landingpad { ptr, i32 }
          catch ptr null
  %82 = extractvalue { ptr, i32 } %81, 0
  tail call void @__clang_call_terminate(ptr %82) #24
  unreachable

._crit_edge:                                      ; preds = %_ZN5faiss13InvertedLists9ScopedIdsD2Ev.exit, %.preheader
  ret ptr %29

_ZN5faiss13InvertedLists9ScopedIdsD2Ev.exit38:    ; preds = %_ZN5faiss13InvertedLists11ScopedCodesD2Ev.exit37, %65, %25
  %.pn34.pn = phi { ptr, i32 } [ %66, %65 ], [ %.pn, %25 ], [ %.pn34, %_ZN5faiss13InvertedLists11ScopedCodesD2Ev.exit37 ]
  resume { ptr, i32 } %.pn34.pn

83:                                               ; preds = %20
  unreachable
}